; Function Attrs: mustprogress nofree norecurse nosync nounwind willreturn memory(argmem: read) uwtable
define dso_local { i64, i8 } @_ZNK4llvm14DWARFFormValue18getAsReferenceUValEv(ptr nocapture noundef nonnull readonly align 8 dereferenceable(48) %0) local_unnamed_addr #7 align 2 {
  %2 = load i16, ptr %0, align 8
  %3 = icmp ult i16 %2, 46
  br i1 %3, label %4, label %8

4:                                                ; preds = %1
  %5 = zext nneg i16 %2 to i64
  %6 = shl nuw nsw i64 1, %5
  %7 = and i64 %6, 73287008256
  %.not = icmp eq i64 %7, 0
  br i1 %.not, label %_ZNK4llvm14DWARFFormValue11isFormClassENS0_9FormClassE.exit, label %9

8:                                                ; preds = %1
  %cond.old = icmp eq i16 %2, 7968
  br i1 %cond.old, label %9, label %_ZNK4llvm14DWARFFormValue11isFormClassENS0_9FormClassE.exit

9:                                                ; preds = %8, %4
  %10 = getelementptr inbounds nuw i8, ptr %0, i64 8
  %11 = load i64, ptr %10, align 8
  br label %_ZNK4llvm14DWARFFormValue11isFormClassENS0_9FormClassE.exit

_ZNK4llvm14DWARFFormValue11isFormClassENS0_9FormClassE.exit: ; preds = %4, %8, %9
  %.sroa.2.0 = phi i8 [ 1, %9 ], [ 0, %8 ], [ 0, %4 ]
  %.sroa.0.0 = phi i64 [ %11, %9 ], [ undef, %8 ], [ undef, %4 ]
  %.fca.0.insert = insertvalue { i64, i8 } poison, i64 %.sroa.0.0, 0
  %.fca.1.insert = insertvalue { i64, i8 } %.fca.0.insert, i8 %.sroa.2.0, 1
  ret { i64, i8 } %.fca.1.insert
}